target datalayout = "e-m:e-p270:32:32-p271:32:32-p272:64:64-i64:64-i128:128-f80:128-n8:16:32:64-S128"
target triple = "x86_64-pc-linux-gnu"

%"class.std::unique_ptr" = type { %"struct.std::__uniq_ptr_data" }
%"struct.std::__uniq_ptr_data" = type { %"class.std::__uniq_ptr_impl" }
%"class.std::__uniq_ptr_impl" = type { %"class.std::tuple" }
%"class.std::tuple" = type { %"struct.std::_Tuple_impl" }
%"struct.std::_Tuple_impl" = type { %"struct.std::_Head_base.1" }
%"struct.std::_Head_base.1" = type { ptr }
%class.BalanceRegion = type { %"class.std::unique_ptr" }
%"class.BalanceRegion::Impl" = type { i8, i8, i8, i64, i64 }
%class.DDBalanceRegionHandler = type { i8, ptr }
%struct.gmx_domdec_t = type { i32, ptr, %"class.gmx::BasicVector", i32, %"class.gmx::BasicVector", i32, i32, i8, ptr, i32, [8 x ptr], %struct.UnitCellInfo, [3 x i32], i32, %"class.gmx::BasicVector", [3 x [2 x i32]], %"class.std::unique_ptr.2", %"class.std::unique_ptr.10", i8, %"class.std::unique_ptr.18", %"class.std::unique_ptr.26", %"class.std::vector", %"class.std::unique_ptr.34", %"class.std::unique_ptr.26", i32, %"class.std::vector", %"class.std::unique_ptr.42", %"class.std::unique_ptr.50", i64, ptr, %"class.std::unique_ptr.58", %"class.std::vector.66", [3 x %"class.std::vector.68"] }
%struct.UnitCellInfo = type <{ i32, i32, i8, i8, [2 x i8] }>
%"class.gmx::BasicVector" = type { [3 x i32] }
%"class.std::unique_ptr.2" = type { %"struct.std::__uniq_ptr_data.3" }
%"struct.std::__uniq_ptr_data.3" = type { %"class.std::__uniq_ptr_impl.4" }
%"class.std::__uniq_ptr_impl.4" = type { %"class.std::tuple.5" }
%"class.std::tuple.5" = type { %"struct.std::_Tuple_impl.6" }
%"struct.std::_Tuple_impl.6" = type { %"struct.std::_Head_base.9" }
%"struct.std::_Head_base.9" = type { ptr }
%"class.std::unique_ptr.10" = type { %"struct.std::__uniq_ptr_data.11" }
%"struct.std::__uniq_ptr_data.11" = type { %"class.std::__uniq_ptr_impl.12" }
%"class.std::__uniq_ptr_impl.12" = type { %"class.std::tuple.13" }
%"class.std::tuple.13" = type { %"struct.std::_Tuple_impl.14" }
%"struct.std::_Tuple_impl.14" = type { %"struct.std::_Head_base.17" }
%"struct.std::_Head_base.17" = type { ptr }
%"class.std::unique_ptr.18" = type { %"struct.std::__uniq_ptr_data.19" }
%"struct.std::__uniq_ptr_data.19" = type { %"class.std::__uniq_ptr_impl.20" }
%"class.std::__uniq_ptr_impl.20" = type { %"class.std::tuple.21" }
%"class.std::tuple.21" = type { %"struct.std::_Tuple_impl.22" }
%"struct.std::_Tuple_impl.22" = type { %"struct.std::_Head_base.25" }
%"struct.std::_Head_base.25" = type { ptr }
%"class.std::unique_ptr.34" = type { %"struct.std::__uniq_ptr_data.35" }
%"struct.std::__uniq_ptr_data.35" = type { %"class.std::__uniq_ptr_impl.36" }
%"class.std::__uniq_ptr_impl.36" = type { %"class.std::tuple.37" }
%"class.std::tuple.37" = type { %"struct.std::_Tuple_impl.38" }
%"struct.std::_Tuple_impl.38" = type { %"struct.std::_Head_base.41" }
%"struct.std::_Head_base.41" = type { ptr }
%"class.std::unique_ptr.26" = type { %"struct.std::__uniq_ptr_data.27" }
%"struct.std::__uniq_ptr_data.27" = type { %"class.std::__uniq_ptr_impl.28" }
%"class.std::__uniq_ptr_impl.28" = type { %"class.std::tuple.29" }
%"class.std::tuple.29" = type { %"struct.std::_Tuple_impl.30" }
%"struct.std::_Tuple_impl.30" = type { %"struct.std::_Head_base.33" }
%"struct.std::_Head_base.33" = type { ptr }
%"class.std::vector" = type { %"struct.std::_Vector_base" }
%"struct.std::_Vector_base" = type { %"struct.std::_Vector_base<int, std::allocator<int>>::_Vector_impl" }
%"struct.std::_Vector_base<int, std::allocator<int>>::_Vector_impl" = type { %"struct.std::_Vector_base<int, std::allocator<int>>::_Vector_impl_data" }
%"struct.std::_Vector_base<int, std::allocator<int>>::_Vector_impl_data" = type { ptr, ptr, ptr }
%"class.std::unique_ptr.42" = type { %"struct.std::__uniq_ptr_data.43" }
%"struct.std::__uniq_ptr_data.43" = type { %"class.std::__uniq_ptr_impl.44" }
%"class.std::__uniq_ptr_impl.44" = type { %"class.std::tuple.45" }
%"class.std::tuple.45" = type { %"struct.std::_Tuple_impl.46" }
%"struct.std::_Tuple_impl.46" = type { %"struct.std::_Head_base.49" }
%"struct.std::_Head_base.49" = type { ptr }
%"class.std::unique_ptr.50" = type { %"struct.std::__uniq_ptr_data.51" }
%"struct.std::__uniq_ptr_data.51" = type { %"class.std::__uniq_ptr_impl.52" }
%"class.std::__uniq_ptr_impl.52" = type { %"class.std::tuple.53" }
%"class.std::tuple.53" = type { %"struct.std::_Tuple_impl.54" }
%"struct.std::_Tuple_impl.54" = type { %"struct.std::_Head_base.57" }
%"struct.std::_Head_base.57" = type { ptr }
%"class.std::unique_ptr.58" = type { %"struct.std::__uniq_ptr_data.59" }
%"struct.std::__uniq_ptr_data.59" = type { %"class.std::__uniq_ptr_impl.60" }
%"class.std::__uniq_ptr_impl.60" = type { %"class.std::tuple.61" }
%"class.std::tuple.61" = type { %"struct.std::_Tuple_impl.62" }
%"struct.std::_Tuple_impl.62" = type { %"struct.std::_Head_base.65" }
%"struct.std::_Head_base.65" = type { ptr }
%"class.std::vector.66" = type { %"struct.std::_Vector_base.67" }
%"struct.std::_Vector_base.67" = type { %"struct.std::_Vector_base<gmx::BasicVector<float>, gmx::Allocator<gmx::BasicVector<float>, gmx::HostAllocationPolicy>>::_Vector_impl" }
%"struct.std::_Vector_base<gmx::BasicVector<float>, gmx::Allocator<gmx::BasicVector<float>, gmx::HostAllocationPolicy>>::_Vector_impl" = type { %"class.gmx::Allocator", %"struct.std::_Vector_base<gmx::BasicVector<float>, gmx::Allocator<gmx::BasicVector<float>, gmx::HostAllocationPolicy>>::_Vector_impl_data" }
%"class.gmx::Allocator" = type { %"class.gmx::HostAllocationPolicy" }
%"class.gmx::HostAllocationPolicy" = type { i32 }
%"struct.std::_Vector_base<gmx::BasicVector<float>, gmx::Allocator<gmx::BasicVector<float>, gmx::HostAllocationPolicy>>::_Vector_impl_data" = type { ptr, ptr, ptr }
%"class.std::vector.68" = type { %"struct.std::_Vector_base.69" }
%"struct.std::_Vector_base.69" = type { %"struct.std::_Vector_base<std::unique_ptr<gmx::GpuHaloExchange>, std::allocator<std::unique_ptr<gmx::GpuHaloExchange>>>::_Vector_impl" }
%"struct.std::_Vector_base<std::unique_ptr<gmx::GpuHaloExchange>, std::allocator<std::unique_ptr<gmx::GpuHaloExchange>>>::_Vector_impl" = type { %"struct.std::_Vector_base<std::unique_ptr<gmx::GpuHaloExchange>, std::allocator<std::unique_ptr<gmx::GpuHaloExchange>>>::_Vector_impl_data" }
%"struct.std::_Vector_base<std::unique_ptr<gmx::GpuHaloExchange>, std::allocator<std::unique_ptr<gmx::GpuHaloExchange>>>::_Vector_impl_data" = type { ptr, ptr, ptr }
%struct.gmx_domdec_comm_t = type { %struct.DDSettings, %struct.DDRankSetup, %struct.CartesianRankSetup, %"class.std::unique_ptr.78", %"class.std::unique_ptr.86", %"class.std::unique_ptr.94", i32, i8, i32, %"struct.std::array", %struct.DDSystemInfo, float, %"class.gmx::BasicVector.102", %"class.gmx::BasicVector.102", float, i8, i8, float, %"class.gmx::BasicVector.102", %"class.gmx::BasicVector.102", %"class.gmx::BasicVector.102", %"class.gmx::BasicVector.102", %"class.gmx::BasicVector.102", %"class.gmx::BasicVector.102", %struct.gmx_domdec_zones_t, %"struct.std::array.111", [2 x [2 x %struct.gmx_ddzone_t]], %"struct.std::array.112", i32, i32, i64, %"struct.std::array.118", %class.DDAtomRanges, %"class.std::vector", %class.DDBuffer, %class.DDBuffer.120, %"class.std::vector.127", %class.DDBuffer.120, %"struct.std::array.132", %"struct.std::array.133", %"class.std::vector.134", %"class.std::vector.139", i32, %"class.std::vector.144", ptr, %class.BalanceRegion, ptr, %"struct.std::array.149", %"struct.std::array.150", %"struct.std::array.149", double, i32, i32, i32, float, float, i8, i64, [4 x double], i32, i32, double, double, double, %"class.gmx::BasicVector", double, double, i64 }
%struct.DDSettings = type { i8, i32, i32, i8, i8, i8, i32, i32, i32, i32 }
%struct.DDRankSetup = type { i32, i32, [3 x i32], i8, i32, i32, i32, i32, [2 x %struct.gmx_ddpme] }
%struct.gmx_ddpme = type <{ i32, i8, [3 x i8], i32, [4 x i8], %"class.std::vector.73", %"class.std::vector", %"class.std::vector", i32, [4 x i8] }>
%"class.std::vector.73" = type { %"struct.std::_Vector_base.74" }
%"struct.std::_Vector_base.74" = type { %"struct.std::_Vector_base<float, std::allocator<float>>::_Vector_impl" }
%"struct.std::_Vector_base<float, std::allocator<float>>::_Vector_impl" = type { %"struct.std::_Vector_base<float, std::allocator<float>>::_Vector_impl_data" }
%"struct.std::_Vector_base<float, std::allocator<float>>::_Vector_impl_data" = type { ptr, ptr, ptr }
%struct.CartesianRankSetup = type { i8, [3 x i32], i32, %"class.std::vector", i8, %"class.std::vector" }
%"class.std::unique_ptr.78" = type { %"struct.std::__uniq_ptr_data.79" }
%"struct.std::__uniq_ptr_data.79" = type { %"class.std::__uniq_ptr_impl.80" }
%"class.std::__uniq_ptr_impl.80" = type { %"class.std::tuple.81" }
%"class.std::tuple.81" = type { %"struct.std::_Tuple_impl.82" }
%"struct.std::_Tuple_impl.82" = type { %"struct.std::_Head_base.85" }
%"struct.std::_Head_base.85" = type { ptr }
%"class.std::unique_ptr.86" = type { %"struct.std::__uniq_ptr_data.87" }
%"struct.std::__uniq_ptr_data.87" = type { %"class.std::__uniq_ptr_impl.88" }
%"class.std::__uniq_ptr_impl.88" = type { %"class.std::tuple.89" }
%"class.std::tuple.89" = type { %"struct.std::_Tuple_impl.90" }
%"struct.std::_Tuple_impl.90" = type { %"struct.std::_Head_base.93" }
%"struct.std::_Head_base.93" = type { ptr }
%"class.std::unique_ptr.94" = type { %"struct.std::__uniq_ptr_data.95" }
%"struct.std::__uniq_ptr_data.95" = type { %"class.std::__uniq_ptr_impl.96" }
%"class.std::__uniq_ptr_impl.96" = type { %"class.std::tuple.97" }
%"class.std::tuple.97" = type { %"struct.std::_Tuple_impl.98" }
%"struct.std::_Tuple_impl.98" = type { %"struct.std::_Head_base.101" }
%"struct.std::_Head_base.101" = type { ptr }
%"struct.std::array" = type { [3 x %"class.std::vector.73"] }
%struct.DDSystemInfo = type <{ i8, [7 x i8], %"class.gmx::ArrayRef", float, i8, i8, i8, i8, float, float, float, i8, i8, [2 x i8], float, i8, i8, i8, i8, [3 x [3 x float]], [4 x i8] }>
%"class.gmx::ArrayRef" = type { %"struct.gmx::ArrayRefIter", %"struct.gmx::ArrayRefIter" }
%"struct.gmx::ArrayRefIter" = type { ptr }
%"class.gmx::BasicVector.102" = type { [3 x float] }
%struct.gmx_domdec_zones_t = type <{ i32, %"struct.std::array.103", %"struct.std::array.104", %"class.std::vector.105", %"struct.std::array.110", float, [4 x i8] }>
%"struct.std::array.103" = type { [8 x [3 x i32]] }
%"struct.std::array.104" = type { [9 x i32] }
%"class.std::vector.105" = type { %"struct.std::_Vector_base.106" }
%"struct.std::_Vector_base.106" = type { %"struct.std::_Vector_base<DDPairInteractionRanges, std::allocator<DDPairInteractionRanges>>::_Vector_impl" }
%"struct.std::_Vector_base<DDPairInteractionRanges, std::allocator<DDPairInteractionRanges>>::_Vector_impl" = type { %"struct.std::_Vector_base<DDPairInteractionRanges, std::allocator<DDPairInteractionRanges>>::_Vector_impl_data" }
%"struct.std::_Vector_base<DDPairInteractionRanges, std::allocator<DDPairInteractionRanges>>::_Vector_impl_data" = type { ptr, ptr, ptr }
%"struct.std::array.110" = type { [8 x %struct.gmx_domdec_zone_size] }
%struct.gmx_domdec_zone_size = type { %"class.gmx::BasicVector.102", %"class.gmx::BasicVector.102", %"class.gmx::BasicVector.102", %"class.gmx::BasicVector.102" }
%"struct.std::array.111" = type { [2 x %struct.gmx_ddzone_t] }
%struct.gmx_ddzone_t = type { float, float, float, float, float, float, float, float }
%"struct.std::array.112" = type { [3 x %struct.gmx_domdec_comm_dim_t] }
%struct.gmx_domdec_comm_dim_t = type <{ i32, [4 x i8], %"class.std::vector.113", i8, [7 x i8] }>
%"class.std::vector.113" = type { %"struct.std::_Vector_base.114" }
%"struct.std::_Vector_base.114" = type { %"struct.std::_Vector_base<gmx_domdec_ind_t, std::allocator<gmx_domdec_ind_t>>::_Vector_impl" }
%"struct.std::_Vector_base<gmx_domdec_ind_t, std::allocator<gmx_domdec_ind_t>>::_Vector_impl" = type { %"struct.std::_Vector_base<gmx_domdec_ind_t, std::allocator<gmx_domdec_ind_t>>::_Vector_impl_data" }
%"struct.std::_Vector_base<gmx_domdec_ind_t, std::allocator<gmx_domdec_ind_t>>::_Vector_impl_data" = type { ptr, ptr, ptr }
%"struct.std::array.118" = type { [8 x i32] }
%class.DDAtomRanges = type { %"struct.std::array.119", i32 }
%"struct.std::array.119" = type { [4 x i32] }
%class.DDBuffer = type <{ %"class.std::vector", i8, [7 x i8] }>
%"class.std::vector.127" = type { %"struct.std::_Vector_base.128" }
%"struct.std::_Vector_base.128" = type { %"struct.std::_Vector_base<dd_comm_setup_work_t, std::allocator<dd_comm_setup_work_t>>::_Vector_impl" }
%"struct.std::_Vector_base<dd_comm_setup_work_t, std::allocator<dd_comm_setup_work_t>>::_Vector_impl" = type { %"struct.std::_Vector_base<dd_comm_setup_work_t, std::allocator<dd_comm_setup_work_t>>::_Vector_impl_data" }
%"struct.std::_Vector_base<dd_comm_setup_work_t, std::allocator<dd_comm_setup_work_t>>::_Vector_impl_data" = type { ptr, ptr, ptr }
%class.DDBuffer.120 = type <{ %"class.std::vector.121", i8, [7 x i8] }>
%"class.std::vector.121" = type { %"struct.std::_Vector_base.122" }
%"struct.std::_Vector_base.122" = type { %"struct.std::_Vector_base<gmx::BasicVector<float>, std::allocator<gmx::BasicVector<float>>>::_Vector_impl" }
%"struct.std::_Vector_base<gmx::BasicVector<float>, std::allocator<gmx::BasicVector<float>>>::_Vector_impl" = type { %"struct.std::_Vector_base<gmx::BasicVector<float>, std::allocator<gmx::BasicVector<float>>>::_Vector_impl_data" }
%"struct.std::_Vector_base<gmx::BasicVector<float>, std::allocator<gmx::BasicVector<float>>>::_Vector_impl_data" = type { ptr, ptr, ptr }
%"struct.std::array.132" = type { [6 x %"class.std::vector"] }
%"struct.std::array.133" = type { [6 x %"class.std::vector.121"] }
%"class.std::vector.134" = type { %"struct.std::_Vector_base.135" }
%"struct.std::_Vector_base.135" = type { %"struct.std::_Vector_base<DDCellsizesWithDlb, std::allocator<DDCellsizesWithDlb>>::_Vector_impl" }
%"struct.std::_Vector_base<DDCellsizesWithDlb, std::allocator<DDCellsizesWithDlb>>::_Vector_impl" = type { %"struct.std::_Vector_base<DDCellsizesWithDlb, std::allocator<DDCellsizesWithDlb>>::_Vector_impl_data" }
%"struct.std::_Vector_base<DDCellsizesWithDlb, std::allocator<DDCellsizesWithDlb>>::_Vector_impl_data" = type { ptr, ptr, ptr }
%"class.std::vector.139" = type { %"struct.std::_Vector_base.140" }
%"struct.std::_Vector_base.140" = type { %"struct.std::_Vector_base<domdec_load, std::allocator<domdec_load>>::_Vector_impl" }
%"struct.std::_Vector_base<domdec_load, std::allocator<domdec_load>>::_Vector_impl" = type { %"struct.std::_Vector_base<domdec_load, std::allocator<domdec_load>>::_Vector_impl_data" }
%"struct.std::_Vector_base<domdec_load, std::allocator<domdec_load>>::_Vector_impl_data" = type { ptr, ptr, ptr }
%"class.std::vector.144" = type { %"struct.std::_Vector_base.145" }
%"struct.std::_Vector_base.145" = type { %"struct.std::_Vector_base<tmpi_comm_ *, std::allocator<tmpi_comm_ *>>::_Vector_impl" }
%"struct.std::_Vector_base<tmpi_comm_ *, std::allocator<tmpi_comm_ *>>::_Vector_impl" = type { %"struct.std::_Vector_base<tmpi_comm_ *, std::allocator<tmpi_comm_ *>>::_Vector_impl_data" }
%"struct.std::_Vector_base<tmpi_comm_ *, std::allocator<tmpi_comm_ *>>::_Vector_impl_data" = type { ptr, ptr, ptr }
%"struct.std::array.150" = type { [5 x i32] }
%"struct.std::array.149" = type { [5 x float] }

; Function Attrs: mustprogress nounwind uwtable
define linkonce_odr noundef nonnull align 8 dereferenceable(8) ptr @_ZNSt10_Head_baseILm0EP17gmx_domdec_comm_tLb0EE7_M_headERKS2_(ptr noundef nonnull align 8 dereferenceable(8) %0) #1 comdat align 2 {
  %2 = alloca ptr, align 8
  store ptr %0, ptr %2, align 8
  %3 = load ptr, ptr %2, align 8
  %4 = getelementptr inbounds %"struct.std::_Head_base.57", ptr %3, i32 0, i32 0
  ret ptr %4
}

; Function Attrs: mustprogress nounwind uwtable
define linkonce_odr noundef nonnull align 8 dereferenceable(8) ptr @_ZNSt10_Head_baseILm0EPN13BalanceRegion4ImplELb0EE7_M_headERKS3_(ptr noundef nonnull align 8 dereferenceable(8) %0) #1 comdat align 2 {
  %2 = alloca ptr, align 8
  store ptr %0, ptr %2, align 8
  %3 = load ptr, ptr %2, align 8
  %4 = getelementptr inbounds %"struct.std::_Head_base.1", ptr %3, i32 0, i32 0
  ret ptr %4
}

; Function Attrs: mustprogress nounwind uwtable
define linkonce_odr noundef nonnull align 8 dereferenceable(8) ptr @_ZNSt11_Tuple_implILm0EJP17gmx_domdec_comm_tSt14default_deleteIS0_EEE7_M_headERKS4_(ptr noundef nonnull align 8 dereferenceable(8) %0) #1 comdat align 2 {
  %2 = alloca ptr, align 8
  store ptr %0, ptr %2, align 8
  %3 = load ptr, ptr %2, align 8
  %4 = call noundef nonnull align 8 dereferenceable(8) ptr @_ZNSt10_Head_baseILm0EP17gmx_domdec_comm_tLb0EE7_M_headERKS2_(ptr noundef nonnull align 8 dereferenceable(8) %3) #9
  ret ptr %4
}

; Function Attrs: mustprogress nounwind uwtable
define linkonce_odr noundef nonnull align 8 dereferenceable(8) ptr @_ZNSt11_Tuple_implILm0EJPN13BalanceRegion4ImplESt14default_deleteIS1_EEE7_M_headERKS5_(ptr noundef nonnull align 8 dereferenceable(8) %0) #1 comdat align 2 {
  %2 = alloca ptr, align 8
  store ptr %0, ptr %2, align 8
  %3 = load ptr, ptr %2, align 8
  %4 = call noundef nonnull align 8 dereferenceable(8) ptr @_ZNSt10_Head_baseILm0EPN13BalanceRegion4ImplELb0EE7_M_headERKS3_(ptr noundef nonnull align 8 dereferenceable(8) %3) #9
  ret ptr %4
}

; Function Attrs: mustprogress nounwind uwtable
define linkonce_odr noundef nonnull align 8 dereferenceable(8) ptr @_ZSt12__get_helperILm0EP17gmx_domdec_comm_tJSt14default_deleteIS0_EEERKT0_RKSt11_Tuple_implIXT_EJS4_DpT1_EE(ptr noundef nonnull align 8 dereferenceable(8) %0) #1 comdat {
  %2 = alloca ptr, align 8
  store ptr %0, ptr %2, align 8
  %3 = load ptr, ptr %2, align 8
  %4 = call noundef nonnull align 8 dereferenceable(8) ptr @_ZNSt11_Tuple_implILm0EJP17gmx_domdec_comm_tSt14default_deleteIS0_EEE7_M_headERKS4_(ptr noundef nonnull align 8 dereferenceable(8) %3) #9
  ret ptr %4
}

; Function Attrs: mustprogress nounwind uwtable
define linkonce_odr noundef nonnull align 8 dereferenceable(8) ptr @_ZSt12__get_helperILm0EPN13BalanceRegion4ImplEJSt14default_deleteIS1_EEERKT0_RKSt11_Tuple_implIXT_EJS5_DpT1_EE(ptr noundef nonnull align 8 dereferenceable(8) %0) #1 comdat {
  %2 = alloca ptr, align 8
  store ptr %0, ptr %2, align 8
  %3 = load ptr, ptr %2, align 8
  %4 = call noundef nonnull align 8 dereferenceable(8) ptr @_ZNSt11_Tuple_implILm0EJPN13BalanceRegion4ImplESt14default_deleteIS1_EEE7_M_headERKS5_(ptr noundef nonnull align 8 dereferenceable(8) %3) #9
  ret ptr %4
}

; Function Attrs: mustprogress nounwind uwtable
define linkonce_odr noundef nonnull align 8 dereferenceable(8) ptr @_ZSt3getILm0EJP17gmx_domdec_comm_tSt14default_deleteIS0_EEERKNSt13tuple_elementIXT_ESt5tupleIJDpT0_EEE4typeERKS8_(ptr noundef nonnull align 8 dereferenceable(8) %0) #1 comdat {
  %2 = alloca ptr, align 8
  store ptr %0, ptr %2, align 8
  %3 = load ptr, ptr %2, align 8
  %4 = call noundef nonnull align 8 dereferenceable(8) ptr @_ZSt12__get_helperILm0EP17gmx_domdec_comm_tJSt14default_deleteIS0_EEERKT0_RKSt11_Tuple_implIXT_EJS4_DpT1_EE(ptr noundef nonnull align 8 dereferenceable(8) %3) #9
  ret ptr %4
}

; Function Attrs: mustprogress nounwind uwtable
define linkonce_odr noundef nonnull align 8 dereferenceable(8) ptr @_ZSt3getILm0EJPN13BalanceRegion4ImplESt14default_deleteIS1_EEERKNSt13tuple_elementIXT_ESt5tupleIJDpT0_EEE4typeERKS9_(ptr noundef nonnull align 8 dereferenceable(8) %0) #1 comdat {
  %2 = alloca ptr, align 8
  store ptr %0, ptr %2, align 8
  %3 = load ptr, ptr %2, align 8
  %4 = call noundef nonnull align 8 dereferenceable(8) ptr @_ZSt12__get_helperILm0EPN13BalanceRegion4ImplEJSt14default_deleteIS1_EEERKT0_RKSt11_Tuple_implIXT_EJS5_DpT1_EE(ptr noundef nonnull align 8 dereferenceable(8) %3) #9
  ret ptr %4
}

; Function Attrs: mustprogress nounwind uwtable
define linkonce_odr noundef ptr @_ZNKSt15__uniq_ptr_implI17gmx_domdec_comm_tSt14default_deleteIS0_EE6_M_ptrEv(ptr noundef nonnull align 8 dereferenceable(8) %0) #1 comdat align 2 {
  %2 = alloca ptr, align 8
  store ptr %0, ptr %2, align 8
  %3 = load ptr, ptr %2, align 8
  %4 = getelementptr inbounds %"class.std::__uniq_ptr_impl.52", ptr %3, i32 0, i32 0
  %5 = call noundef nonnull align 8 dereferenceable(8) ptr @_ZSt3getILm0EJP17gmx_domdec_comm_tSt14default_deleteIS0_EEERKNSt13tuple_elementIXT_ESt5tupleIJDpT0_EEE4typeERKS8_(ptr noundef nonnull align 8 dereferenceable(8) %4) #9
  %6 = load ptr, ptr %5, align 8
  ret ptr %6
}

; Function Attrs: mustprogress nounwind uwtable
define linkonce_odr noundef ptr @_ZNKSt15__uniq_ptr_implIN13BalanceRegion4ImplESt14default_deleteIS1_EE6_M_ptrEv(ptr noundef nonnull align 8 dereferenceable(8) %0) #1 comdat align 2 {
  %2 = alloca ptr, align 8
  store ptr %0, ptr %2, align 8
  %3 = load ptr, ptr %2, align 8
  %4 = getelementptr inbounds %"class.std::__uniq_ptr_impl", ptr %3, i32 0, i32 0
  %5 = call noundef nonnull align 8 dereferenceable(8) ptr @_ZSt3getILm0EJPN13BalanceRegion4ImplESt14default_deleteIS1_EEERKNSt13tuple_elementIXT_ESt5tupleIJDpT0_EEE4typeERKS9_(ptr noundef nonnull align 8 dereferenceable(8) %4) #9
  %6 = load ptr, ptr %5, align 8
  ret ptr %6
}

; Function Attrs: mustprogress nounwind uwtable
define linkonce_odr noundef ptr @_ZNKSt10unique_ptrI17gmx_domdec_comm_tSt14default_deleteIS0_EE3getEv(ptr noundef nonnull align 8 dereferenceable(8) %0) #1 comdat align 2 {
  %2 = alloca ptr, align 8
  store ptr %0, ptr %2, align 8
  %3 = load ptr, ptr %2, align 8
  %4 = getelementptr inbounds %"class.std::unique_ptr.50", ptr %3, i32 0, i32 0
  %5 = call noundef ptr @_ZNKSt15__uniq_ptr_implI17gmx_domdec_comm_tSt14default_deleteIS0_EE6_M_ptrEv(ptr noundef nonnull align 8 dereferenceable(8) %4) #9
  ret ptr %5
}

; Function Attrs: mustprogress nounwind uwtable
define linkonce_odr noundef ptr @_ZNKSt10unique_ptrIN13BalanceRegion4ImplESt14default_deleteIS1_EE3getEv(ptr noundef nonnull align 8 dereferenceable(8) %0) #1 comdat align 2 {
  %2 = alloca ptr, align 8
  store ptr %0, ptr %2, align 8
  %3 = load ptr, ptr %2, align 8
  %4 = getelementptr inbounds %"class.std::unique_ptr", ptr %3, i32 0, i32 0
  %5 = call noundef ptr @_ZNKSt15__uniq_ptr_implIN13BalanceRegion4ImplESt14default_deleteIS1_EE6_M_ptrEv(ptr noundef nonnull align 8 dereferenceable(8) %4) #9
  ret ptr %5
}

; Function Attrs: mustprogress nounwind uwtable
define linkonce_odr noundef ptr @_ZNKSt10unique_ptrI17gmx_domdec_comm_tSt14default_deleteIS0_EEptEv(ptr noundef nonnull align 8 dereferenceable(8) %0) #1 comdat align 2 {
  %2 = alloca ptr, align 8
  store ptr %0, ptr %2, align 8
  %3 = load ptr, ptr %2, align 8
  %4 = call noundef ptr @_ZNKSt10unique_ptrI17gmx_domdec_comm_tSt14default_deleteIS0_EE3getEv(ptr noundef nonnull align 8 dereferenceable(8) %3) #9
  ret ptr %4
}

; Function Attrs: mustprogress nounwind uwtable
define internal noundef ptr @_ZL16getBalanceRegionPK12gmx_domdec_t(ptr noundef %0) #1 {
  %2 = alloca ptr, align 8
  %3 = alloca ptr, align 8
  store ptr %0, ptr %2, align 8
  %4 = load ptr, ptr %2, align 8
  %5 = getelementptr inbounds %struct.gmx_domdec_t, ptr %4, i32 0, i32 27
  %6 = call noundef ptr @_ZNKSt10unique_ptrI17gmx_domdec_comm_tSt14default_deleteIS0_EEptEv(ptr noundef nonnull align 8 dereferenceable(8) %5) #9
  %7 = getelementptr inbounds %struct.gmx_domdec_comm_t, ptr %6, i32 0, i32 45
  %8 = getelementptr inbounds %class.BalanceRegion, ptr %7, i32 0, i32 0
  %9 = call noundef ptr @_ZNKSt10unique_ptrIN13BalanceRegion4ImplESt14default_deleteIS1_EE3getEv(ptr noundef nonnull align 8 dereferenceable(8) %8) #9
  store ptr %9, ptr %3, align 8
  %10 = load ptr, ptr %3, align 8
  ret ptr %10
}

; Function Attrs: mustprogress nounwind uwtable
define void @_ZNK22DDBalanceRegionHandler17openRegionGpuImplEv(ptr noundef nonnull align 8 dereferenceable(16) %0) #1 align 2 {
  %2 = alloca ptr, align 8
  %3 = alloca ptr, align 8
  store ptr %0, ptr %2, align 8
  %4 = load ptr, ptr %2, align 8
  %5 = getelementptr inbounds %class.DDBalanceRegionHandler, ptr %4, i32 0, i32 1
  %6 = load ptr, ptr %5, align 8
  %7 = call noundef ptr @_ZL16getBalanceRegionPK12gmx_domdec_t(ptr noundef %6)
  store ptr %7, ptr %3, align 8
  %8 = load ptr, ptr %3, align 8
  %9 = getelementptr inbounds %"class.BalanceRegion::Impl", ptr %8, i32 0, i32 2
  store i8 1, ptr %9, align 2
  ret void
}