; Function Attrs: mustprogress nofree norecurse nosync nounwind willreturn memory(readwrite, inaccessiblemem: none) uwtable
define void @_ZNK22DDBalanceRegionHandler17openRegionGpuImplEv(ptr nocapture noundef nonnull readonly align 8 dereferenceable(16) %0) local_unnamed_addr #5 align 2 {
  %2 = getelementptr inbounds i8, ptr %0, i64 8
  %3 = load ptr, ptr %2, align 8
  %4 = getelementptr i8, ptr %3, i64 320
  %.val = load ptr, ptr %4, align 8
  %5 = getelementptr i8, ptr %.val, i64 2120
  %.val.val = load ptr, ptr %5, align 8
  %6 = getelementptr inbounds i8, ptr %.val.val, i64 2
  store i8 1, ptr %6, align 2
  ret void
}